; Function Attrs: inlinehint nofree norecurse nosync nounwind memory(argmem: read) uwtable
define internal fastcc i32 @hash_string(ptr noundef %0) unnamed_addr #15 {
  %2 = ptrtoint ptr %0 to i64
  %3 = and i64 %2, 7
  %4 = icmp eq i64 %3, 0
  br i1 %4, label %5, label %75

5:                                                ; preds = %1
  %6 = load i64, ptr %0, align 8
  %7 = add i64 %6, -72340172838076673
  %8 = and i64 %6, -9187201950435737472
  %9 = xor i64 %8, -9187201950435737472
  %10 = and i64 %9, %7
  %.not22.i.i = icmp eq i64 %10, 0
  br i1 %.not22.i.i, label %.lr.ph.i.i, label %._crit_edge.i.i

.lr.ph.i.i:                                       ; preds = %5, %.lr.ph.i.i
  %11 = phi i64 [ %19, %.lr.ph.i.i ], [ -8645972361240307355, %5 ]
  %12 = phi i64 [ %21, %.lr.ph.i.i ], [ %6, %5 ]
  %.01723.i.i = phi ptr [ %20, %.lr.ph.i.i ], [ %0, %5 ]
  %13 = lshr i64 %12, 23
  %14 = xor i64 %13, %12
  %15 = mul i64 %14, 2388976653695081527
  %16 = lshr i64 %15, 47
  %17 = xor i64 %11, %16
  %18 = xor i64 %17, %15
  %19 = mul i64 %18, -8645972361240307355
  %20 = getelementptr inbounds nuw i8, ptr %.01723.i.i, i64 8
  %21 = load i64, ptr %20, align 8
  %22 = add i64 %21, -72340172838076673
  %23 = and i64 %21, -9187201950435737472
  %24 = xor i64 %23, -9187201950435737472
  %25 = and i64 %24, %22
  %.not.i.i = icmp eq i64 %25, 0
  br i1 %.not.i.i, label %.lr.ph.i.i, label %._crit_edge.i.i

._crit_edge.i.i:                                  ; preds = %.lr.ph.i.i, %5
  %.0.copyload.i.i.i.in = phi i64 [ %6, %5 ], [ %21, %.lr.ph.i.i ]
  %.sroa.19.2 = phi i64 [ -8645972361240307355, %5 ], [ %19, %.lr.ph.i.i ]
  %.017.lcssa.i.i = phi ptr [ %0, %5 ], [ %20, %.lr.ph.i.i ]
  %.lcssa.i.i = phi i64 [ %10, %5 ], [ %25, %.lr.ph.i.i ]
  %26 = tail call range(i64 0, 65) i64 @llvm.cttz.i64(i64 range(i64 0, -9187201950435737471) %.lcssa.i.i, i1 true)
  %27 = lshr i64 %26, 3
  switch i64 %27, label %default.unreachable [
    i64 0, label %fasthash_accum_cstring_aligned.exit.i
    i64 7, label %28
    i64 6, label %33
    i64 5, label %40
    i64 4, label %47
    i64 3, label %51
    i64 2, label %56
    i64 1, label %63
  ]

28:                                               ; preds = %._crit_edge.i.i
  %29 = getelementptr inbounds nuw i8, ptr %.017.lcssa.i.i, i64 6
  %30 = load i8, ptr %29, align 1
  %31 = sext i8 %30 to i64
  %32 = shl nsw i64 %31, 48
  br label %33

33:                                               ; preds = %28, %._crit_edge.i.i
  %34 = phi i64 [ %32, %28 ], [ 0, %._crit_edge.i.i ]
  %35 = getelementptr inbounds nuw i8, ptr %.017.lcssa.i.i, i64 5
  %36 = load i8, ptr %35, align 1
  %37 = sext i8 %36 to i64
  %38 = shl nsw i64 %37, 40
  %39 = or i64 %38, %34
  br label %40

40:                                               ; preds = %33, %._crit_edge.i.i
  %41 = phi i64 [ %39, %33 ], [ 0, %._crit_edge.i.i ]
  %42 = getelementptr inbounds nuw i8, ptr %.017.lcssa.i.i, i64 4
  %43 = load i8, ptr %42, align 1
  %44 = sext i8 %43 to i64
  %45 = shl nsw i64 %44, 32
  %46 = or i64 %45, %41
  br label %47

47:                                               ; preds = %40, %._crit_edge.i.i
  %48 = phi i64 [ %46, %40 ], [ 0, %._crit_edge.i.i ]
  %49 = and i64 %.0.copyload.i.i.i.in, 4294967295
  %50 = or i64 %48, %49
  br label %.sink.split.i.i.i

51:                                               ; preds = %._crit_edge.i.i
  %52 = getelementptr inbounds nuw i8, ptr %.017.lcssa.i.i, i64 2
  %53 = load i8, ptr %52, align 1
  %54 = sext i8 %53 to i64
  %55 = shl nsw i64 %54, 16
  br label %56

56:                                               ; preds = %51, %._crit_edge.i.i
  %57 = phi i64 [ %55, %51 ], [ 0, %._crit_edge.i.i ]
  %58 = getelementptr inbounds nuw i8, ptr %.017.lcssa.i.i, i64 1
  %59 = load i8, ptr %58, align 1
  %60 = sext i8 %59 to i64
  %61 = shl nsw i64 %60, 8
  %62 = or i64 %61, %57
  br label %63

63:                                               ; preds = %56, %._crit_edge.i.i
  %64 = phi i64 [ %62, %56 ], [ 0, %._crit_edge.i.i ]
  %sext = shl i64 %.0.copyload.i.i.i.in, 56
  %65 = ashr exact i64 %sext, 56
  %66 = or i64 %64, %65
  br label %.sink.split.i.i.i

.sink.split.i.i.i:                                ; preds = %63, %47
  %.sink.i.i.i = phi i64 [ %66, %63 ], [ %50, %47 ]
  %67 = lshr i64 %.sink.i.i.i, 23
  %68 = xor i64 %67, %.sink.i.i.i
  %69 = mul i64 %68, 2388976653695081527
  %70 = lshr i64 %69, 47
  %71 = xor i64 %.sroa.19.2, %70
  %72 = xor i64 %71, %69
  %73 = mul i64 %72, -8645972361240307355
  br label %fasthash_accum_cstring_aligned.exit.i

default.unreachable:                              ; preds = %._crit_edge.i.i
  unreachable

fasthash_accum_cstring_aligned.exit.i:            ; preds = %.sink.split.i.i.i, %._crit_edge.i.i
  %.sroa.19.3 = phi i64 [ %73, %.sink.split.i.i.i ], [ %.sroa.19.2, %._crit_edge.i.i ]
  %74 = getelementptr inbounds nuw i8, ptr %.017.lcssa.i.i, i64 %27
  br label %fasthash_accum_cstring.exit

75:                                               ; preds = %1
  %76 = load i8, ptr %0, align 1
  %.not15.i.i = icmp eq i8 %76, 0
  br i1 %.not15.i.i, label %fasthash_accum_cstring.exit, label %.preheader.i.i

.preheader.i.i:                                   ; preds = %75, %fasthash_accum.exit.i.i
  %77 = phi i8 [ %131, %fasthash_accum.exit.i.i ], [ %76, %75 ]
  %.sroa.19.0 = phi i64 [ %.sroa.19.1, %fasthash_accum.exit.i.i ], [ -8645972361240307355, %75 ]
  %.01216.i.i = phi ptr [ %132, %fasthash_accum.exit.i.i ], [ %0, %75 ]
  br label %78

78:                                               ; preds = %81, %.preheader.i.i
  %.014.i.i = phi i64 [ 0, %.preheader.i.i ], [ %82, %81 ]
  %79 = getelementptr inbounds nuw i8, ptr %.01216.i.i, i64 %.014.i.i
  %80 = load i8, ptr %79, align 1
  %.not13.i.i = icmp eq i8 %80, 0
  br i1 %.not13.i.i, label %.critedge.i.i, label %81

81:                                               ; preds = %78
  %82 = add nuw nsw i64 %.014.i.i, 1
  %exitcond.not.i.i = icmp eq i64 %82, 8
  br i1 %exitcond.not.i.i, label %.critedge.thread.i.i, label %78, !llvm.loop !23

.critedge.i.i:                                    ; preds = %78
  switch i64 %.014.i.i, label %.sink.split.i.i6.i [
    i64 8, label %.critedge.thread.i.i
    i64 7, label %84
    i64 6, label %89
    i64 5, label %96
    i64 4, label %103
    i64 3, label %107
    i64 2, label %112
    i64 1, label %119
    i64 0, label %fasthash_accum.exit.i.i
  ]

.critedge.thread.i.i:                             ; preds = %81, %.critedge.i.i
  %83 = load i64, ptr %.01216.i.i, align 1
  %.phi.trans.insert.phi.trans.insert = getelementptr inbounds nuw i8, ptr %.01216.i.i, i64 8
  %.pre.pre = load i8, ptr %.phi.trans.insert.phi.trans.insert, align 1
  br label %.sink.split.i.i6.i

84:                                               ; preds = %.critedge.i.i
  %85 = getelementptr inbounds nuw i8, ptr %.01216.i.i, i64 6
  %86 = load i8, ptr %85, align 1
  %87 = sext i8 %86 to i64
  %88 = shl nsw i64 %87, 48
  br label %89

89:                                               ; preds = %84, %.critedge.i.i
  %90 = phi i64 [ %88, %84 ], [ 0, %.critedge.i.i ]
  %91 = getelementptr inbounds nuw i8, ptr %.01216.i.i, i64 5
  %92 = load i8, ptr %91, align 1
  %93 = sext i8 %92 to i64
  %94 = shl nsw i64 %93, 40
  %95 = or i64 %94, %90
  br label %96

96:                                               ; preds = %89, %.critedge.i.i
  %97 = phi i64 [ %95, %89 ], [ 0, %.critedge.i.i ]
  %98 = getelementptr inbounds nuw i8, ptr %.01216.i.i, i64 4
  %99 = load i8, ptr %98, align 1
  %100 = sext i8 %99 to i64
  %101 = shl nsw i64 %100, 32
  %102 = or i64 %101, %97
  br label %103

103:                                              ; preds = %96, %.critedge.i.i
  %104 = phi i64 [ %102, %96 ], [ 0, %.critedge.i.i ]
  %.0.copyload.i.i10.i = load i32, ptr %.01216.i.i, align 1
  %105 = zext i32 %.0.copyload.i.i10.i to i64
  %106 = or i64 %104, %105
  br label %.sink.split.i.i6.i

107:                                              ; preds = %.critedge.i.i
  %108 = getelementptr inbounds nuw i8, ptr %.01216.i.i, i64 2
  %109 = load i8, ptr %108, align 1
  %110 = sext i8 %109 to i64
  %111 = shl nsw i64 %110, 16
  br label %112

112:                                              ; preds = %107, %.critedge.i.i
  %113 = phi i64 [ %111, %107 ], [ 0, %.critedge.i.i ]
  %114 = getelementptr inbounds nuw i8, ptr %.01216.i.i, i64 1
  %115 = load i8, ptr %114, align 1
  %116 = sext i8 %115 to i64
  %117 = shl nsw i64 %116, 8
  %118 = or i64 %117, %113
  br label %119

119:                                              ; preds = %112, %.critedge.i.i
  %120 = phi i64 [ %118, %112 ], [ 0, %.critedge.i.i ]
  %121 = sext i8 %77 to i64
  %122 = or i64 %120, %121
  br label %.sink.split.i.i6.i

.sink.split.i.i6.i:                               ; preds = %.critedge.thread.i.i, %103, %119, %.critedge.i.i
  %.pre = phi i8 [ 0, %.critedge.i.i ], [ 0, %119 ], [ 0, %103 ], [ %.pre.pre, %.critedge.thread.i.i ]
  %.0.lcssa23.i.i = phi i64 [ %.014.i.i, %.critedge.i.i ], [ %.014.i.i, %119 ], [ %.014.i.i, %103 ], [ 8, %.critedge.thread.i.i ]
  %123 = phi i64 [ 0, %.critedge.i.i ], [ %122, %119 ], [ %106, %103 ], [ %83, %.critedge.thread.i.i ]
  %124 = lshr i64 %123, 23
  %125 = xor i64 %124, %123
  %126 = mul i64 %125, 2388976653695081527
  %127 = lshr i64 %126, 47
  %128 = xor i64 %.sroa.19.0, %127
  %129 = xor i64 %128, %126
  %130 = mul i64 %129, -8645972361240307355
  br label %fasthash_accum.exit.i.i

fasthash_accum.exit.i.i:                          ; preds = %.sink.split.i.i6.i, %.critedge.i.i
  %131 = phi i8 [ %.pre, %.sink.split.i.i6.i ], [ %77, %.critedge.i.i ]
  %.sroa.19.1 = phi i64 [ %130, %.sink.split.i.i6.i ], [ %.sroa.19.0, %.critedge.i.i ]
  %.0.lcssa20.i.i = phi i64 [ %.0.lcssa23.i.i, %.sink.split.i.i6.i ], [ %.014.i.i, %.critedge.i.i ]
  %132 = getelementptr inbounds nuw i8, ptr %.01216.i.i, i64 %.0.lcssa20.i.i
  %.not.i8.i = icmp eq i8 %131, 0
  br i1 %.not.i8.i, label %fasthash_accum_cstring.exit, label %.preheader.i.i, !llvm.loop !24

fasthash_accum_cstring.exit:                      ; preds = %fasthash_accum.exit.i.i, %fasthash_accum_cstring_aligned.exit.i, %75
  %.sroa.19.4 = phi i64 [ %.sroa.19.3, %fasthash_accum_cstring_aligned.exit.i ], [ -8645972361240307355, %75 ], [ %.sroa.19.1, %fasthash_accum.exit.i.i ]
  %.pn.in.i = phi ptr [ %74, %fasthash_accum_cstring_aligned.exit.i ], [ %0, %75 ], [ %132, %fasthash_accum.exit.i.i ]
  %.pn.i = ptrtoint ptr %.pn.in.i to i64
  %133 = lshr i64 %.sroa.19.4, 23
  %.0.i = sub i64 %133, %2
  %134 = add i64 %.0.i, %.pn.i
  %135 = xor i64 %134, %.sroa.19.4
  %136 = mul i64 %135, 2388976653695081527
  %137 = lshr i64 %136, 47
  %138 = xor i64 %137, %136
  %139 = lshr i64 %136, 32
  %140 = sub i64 %138, %139
  %141 = trunc i64 %140 to i32
  ret i32 %141
}